target datalayout = "e-m:e-p270:32:32-p271:32:32-p272:64:64-i64:64-i128:128-f80:128-n8:16:32:64-S128"
target triple = "x86_64-pc-linux-gnu"

%struct.WebPBitstreamFeatures = type { i32, i32, i32, i32, i32, [5 x i32] }
%struct.WebPData = type { ptr, i64 }
%struct.WebPAnimDecoder = type { ptr, %struct.WebPDecoderConfig, ptr, %struct.WebPAnimInfo, ptr, ptr, i32, %struct.WebPIterator, i32, i32 }
%struct.WebPDecoderConfig = type { %struct.WebPBitstreamFeatures, %struct.WebPDecBuffer, %struct.WebPDecoderOptions }
%struct.WebPDecBuffer = type { i32, i32, i32, i32, %union.anon, [4 x i32], ptr }
%union.anon = type { %struct.WebPYUVABuffer }
%struct.WebPYUVABuffer = type { ptr, ptr, ptr, ptr, i32, i32, i32, i32, i64, i64, i64, i64 }
%struct.WebPDecoderOptions = type { i32, i32, i32, i32, i32, i32, i32, i32, i32, i32, i32, i32, i32, i32, [5 x i32] }
%struct.WebPAnimInfo = type { i32, i32, i32, i32, i32, [4 x i32] }
%struct.WebPIterator = type { i32, i32, i32, i32, i32, i32, i32, i32, i32, %struct.WebPData, i32, i32, [2 x i32], ptr }

; Function Attrs: nounwind uwtable
define void @WebPAnimDecoderDelete(ptr noundef %0) #0 {
  %2 = alloca ptr, align 8
  store ptr %0, ptr %2, align 8, !tbaa !15
  %3 = load ptr, ptr %2, align 8, !tbaa !15
  %4 = icmp ne ptr %3, null
  br i1 %4, label %5, label %18

5:                                                ; preds = %1
  %6 = load ptr, ptr %2, align 8, !tbaa !15
  %7 = getelementptr inbounds nuw %struct.WebPAnimDecoder, ptr %6, i32 0, i32 7
  call void @WebPDemuxReleaseIterator(ptr noundef %7)
  %8 = load ptr, ptr %2, align 8, !tbaa !15
  %9 = getelementptr inbounds nuw %struct.WebPAnimDecoder, ptr %8, i32 0, i32 0
  %10 = load ptr, ptr %9, align 8, !tbaa !24
  call void @WebPDemuxDelete(ptr noundef %10)
  %11 = load ptr, ptr %2, align 8, !tbaa !15
  %12 = getelementptr inbounds nuw %struct.WebPAnimDecoder, ptr %11, i32 0, i32 4
  %13 = load ptr, ptr %12, align 8, !tbaa !38
  call void @WebPSafeFree(ptr noundef %13)
  %14 = load ptr, ptr %2, align 8, !tbaa !15
  %15 = getelementptr inbounds nuw %struct.WebPAnimDecoder, ptr %14, i32 0, i32 5
  %16 = load ptr, ptr %15, align 8, !tbaa !39
  call void @WebPSafeFree(ptr noundef %16)
  %17 = load ptr, ptr %2, align 8, !tbaa !15
  call void @WebPSafeFree(ptr noundef %17)
  br label %18

18:                                               ; preds = %5, %1
  ret void
}