; Function Attrs: nounwind uwtable
define void @WebPAnimDecoderDelete(ptr noundef %0) local_unnamed_addr #1 {
  %.not = icmp eq ptr %0, null
  br i1 %.not, label %9, label %2

2:                                                ; preds = %1
  %3 = getelementptr inbounds nuw i8, ptr %0, i64 320
  tail call void @WebPDemuxReleaseIterator(ptr noundef nonnull %3) #9
  %4 = load ptr, ptr %0, align 8, !tbaa !28
  tail call void @WebPDemuxDelete(ptr noundef %4) #9
  %5 = getelementptr inbounds nuw i8, ptr %0, i64 296
  %6 = load ptr, ptr %5, align 8, !tbaa !34
  tail call void @WebPSafeFree(ptr noundef %6) #9
  %7 = getelementptr inbounds nuw i8, ptr %0, i64 304
  %8 = load ptr, ptr %7, align 8, !tbaa !35
  tail call void @WebPSafeFree(ptr noundef %8) #9
  tail call void @WebPSafeFree(ptr noundef nonnull %0) #9
  br label %9

9:                                                ; preds = %2, %1
  ret void
}